target datalayout = "e-m:e-p270:32:32-p271:32:32-p272:64:64-i64:64-f80:128-n8:16:32:64-S128"
target triple = "x86_64-pc-linux-gnu"

@.str = private unnamed_addr constant [5 x i8] c"%d%d\00", align 1
@.str.1 = private unnamed_addr constant [3 x i8] c"%d\00", align 1
@.str.2 = private unnamed_addr constant [4 x i8] c"%d\0A\00", align 1

; Function Attrs: noinline nounwind uwtable
define dso_local i32 @main() #0 {
  %1 = alloca i32, align 4
  %2 = alloca [100 x [100 x i32]], align 16
  %3 = alloca i32, align 4
  %4 = alloca i32, align 4
  %5 = alloca i32, align 4
  %6 = alloca i32, align 4
  %7 = alloca i32, align 4
  store i32 0, i32* %1, align 4
  %8 = call i32 (i8*, ...) @__isoc99_scanf(i8* getelementptr inbounds ([5 x i8], [5 x i8]* @.str, i64 0, i64 0), i32* %4, i32* %5)
  store i32 0, i32* %6, align 4
  br label %9

9:                                                ; preds = %32, %0
  %10 = load i32, i32* %6, align 4
  %11 = load i32, i32* %4, align 4
  %12 = sub nsw i32 %11, 1
  %13 = icmp sle i32 %10, %12
  br i1 %13, label %14, label %35

14:                                               ; preds = %9
  store i32 0, i32* %7, align 4
  br label %15

15:                                               ; preds = %28, %14
  %16 = load i32, i32* %7, align 4
  %17 = load i32, i32* %5, align 4
  %18 = sub nsw i32 %17, 1
  %19 = icmp sle i32 %16, %18
  br i1 %19, label %20, label %31

20:                                               ; preds = %15
  %21 = load i32, i32* %6, align 4
  %22 = sext i32 %21 to i64
  %23 = getelementptr inbounds [100 x [100 x i32]], [100 x [100 x i32]]* %2, i64 0, i64 %22
  %24 = load i32, i32* %7, align 4
  %25 = sext i32 %24 to i64
  %26 = getelementptr inbounds [100 x i32], [100 x i32]* %23, i64 0, i64 %25
  %27 = call i32 (i8*, ...) @__isoc99_scanf(i8* getelementptr inbounds ([3 x i8], [3 x i8]* @.str.1, i64 0, i64 0), i32* %26)
  br label %28

28:                                               ; preds = %20
  %29 = load i32, i32* %7, align 4
  %30 = add nsw i32 %29, 1
  store i32 %30, i32* %7, align 4
  br label %15

31:                                               ; preds = %15
  br label %32

32:                                               ; preds = %31
  %33 = load i32, i32* %6, align 4
  %34 = add nsw i32 %33, 1
  store i32 %34, i32* %6, align 4
  br label %9

35:                                               ; preds = %9
  %36 = load i32, i32* %4, align 4
  %37 = load i32, i32* %5, align 4
  %38 = icmp sge i32 %36, %37
  br i1 %38, label %39, label %140

39:                                               ; preds = %35
  store i32 0, i32* %3, align 4
  br label %40

40:                                               ; preds = %65, %39
  %41 = load i32, i32* %3, align 4
  %42 = load i32, i32* %5, align 4
  %43 = sub nsw i32 %42, 1
  %44 = icmp sle i32 %41, %43
  br i1 %44, label %45, label %68

45:                                               ; preds = %40
  store i32 0, i32* %6, align 4
  br label %46

46:                                               ; preds = %61, %45
  %47 = load i32, i32* %6, align 4
  %48 = load i32, i32* %3, align 4
  %49 = icmp sle i32 %47, %48
  br i1 %49, label %50, label %64

50:                                               ; preds = %46
  %51 = load i32, i32* %6, align 4
  %52 = sext i32 %51 to i64
  %53 = getelementptr inbounds [100 x [100 x i32]], [100 x [100 x i32]]* %2, i64 0, i64 %52
  %54 = load i32, i32* %3, align 4
  %55 = load i32, i32* %6, align 4
  %56 = sub nsw i32 %54, %55
  %57 = sext i32 %56 to i64
  %58 = getelementptr inbounds [100 x i32], [100 x i32]* %53, i64 0, i64 %57
  %59 = load i32, i32* %58, align 4
  %60 = call i32 (i8*, ...) @printf(i8* getelementptr inbounds ([4 x i8], [4 x i8]* @.str.2, i64 0, i64 0), i32 %59)
  br label %61

61:                                               ; preds = %50
  %62 = load i32, i32* %6, align 4
  %63 = add nsw i32 %62, 1
  store i32 %63, i32* %6, align 4
  br label %46

64:                                               ; preds = %46
  br label %65

65:                                               ; preds = %64
  %66 = load i32, i32* %3, align 4
  %67 = add nsw i32 %66, 1
  store i32 %67, i32* %3, align 4
  br label %40

68:                                               ; preds = %40
  %69 = load i32, i32* %5, align 4
  store i32 %69, i32* %3, align 4
  br label %70

70:                                               ; preds = %99, %68
  %71 = load i32, i32* %3, align 4
  %72 = load i32, i32* %4, align 4
  %73 = sub nsw i32 %72, 1
  %74 = icmp sle i32 %71, %73
  br i1 %74, label %75, label %102

75:                                               ; preds = %70
  %76 = load i32, i32* %3, align 4
  %77 = load i32, i32* %5, align 4
  %78 = sub nsw i32 %76, %77
  %79 = add nsw i32 %78, 1
  store i32 %79, i32* %6, align 4
  br label %80

80:                                               ; preds = %95, %75
  %81 = load i32, i32* %6, align 4
  %82 = load i32, i32* %3, align 4
  %83 = icmp sle i32 %81, %82
  br i1 %83, label %84, label %98

84:                                               ; preds = %80
  %85 = load i32, i32* %6, align 4
  %86 = sext i32 %85 to i64
  %87 = getelementptr inbounds [100 x [100 x i32]], [100 x [100 x i32]]* %2, i64 0, i64 %86
  %88 = load i32, i32* %3, align 4
  %89 = load i32, i32* %6, align 4
  %90 = sub nsw i32 %88, %89
  %91 = sext i32 %90 to i64
  %92 = getelementptr inbounds [100 x i32], [100 x i32]* %87, i64 0, i64 %91
  %93 = load i32, i32* %92, align 4
  %94 = call i32 (i8*, ...) @printf(i8* getelementptr inbounds ([4 x i8], [4 x i8]* @.str.2, i64 0, i64 0), i32 %93)
  br label %95

95:                                               ; preds = %84
  %96 = load i32, i32* %6, align 4
  %97 = add nsw i32 %96, 1
  store i32 %97, i32* %6, align 4
  br label %80

98:                                               ; preds = %80
  br label %99

99:                                               ; preds = %98
  %100 = load i32, i32* %3, align 4
  %101 = add nsw i32 %100, 1
  store i32 %101, i32* %3, align 4
  br label %70

102:                                              ; preds = %70
  %103 = load i32, i32* %4, align 4
  store i32 %103, i32* %3, align 4
  br label %104

104:                                              ; preds = %136, %102
  %105 = load i32, i32* %3, align 4
  %106 = load i32, i32* %4, align 4
  %107 = load i32, i32* %5, align 4
  %108 = add nsw i32 %106, %107
  %109 = sub nsw i32 %108, 2
  %110 = icmp sle i32 %105, %109
  br i1 %110, label %111, label %139

111:                                              ; preds = %104
  %112 = load i32, i32* %3, align 4
  %113 = load i32, i32* %5, align 4
  %114 = sub nsw i32 %112, %113
  %115 = add nsw i32 %114, 1
  store i32 %115, i32* %6, align 4
  br label %116

116:                                              ; preds = %132, %111
  %117 = load i32, i32* %6, align 4
  %118 = load i32, i32* %4, align 4
  %119 = sub nsw i32 %118, 1
  %120 = icmp sle i32 %117, %119
  br i1 %120, label %121, label %135

121:                                              ; preds = %116
  %122 = load i32, i32* %6, align 4
  %123 = sext i32 %122 to i64
  %124 = getelementptr inbounds [100 x [100 x i32]], [100 x [100 x i32]]* %2, i64 0, i64 %123
  %125 = load i32, i32* %3, align 4
  %126 = load i32, i32* %6, align 4
  %127 = sub nsw i32 %125, %126
  %128 = sext i32 %127 to i64
  %129 = getelementptr inbounds [100 x i32], [100 x i32]* %124, i64 0, i64 %128
  %130 = load i32, i32* %129, align 4
  %131 = call i32 (i8*, ...) @printf(i8* getelementptr inbounds ([4 x i8], [4 x i8]* @.str.2, i64 0, i64 0), i32 %130)
  br label %132

132:                                              ; preds = %121
  %133 = load i32, i32* %6, align 4
  %134 = add nsw i32 %133, 1
  store i32 %134, i32* %6, align 4
  br label %116

135:                                              ; preds = %116
  br label %136

136:                                              ; preds = %135
  %137 = load i32, i32* %3, align 4
  %138 = add nsw i32 %137, 1
  store i32 %138, i32* %3, align 4
  br label %104

139:                                              ; preds = %104
  br label %238

140:                                              ; preds = %35
  store i32 0, i32* %3, align 4
  br label %141

141:                                              ; preds = %166, %140
  %142 = load i32, i32* %3, align 4
  %143 = load i32, i32* %4, align 4
  %144 = sub nsw i32 %143, 1
  %145 = icmp sle i32 %142, %144
  br i1 %145, label %146, label %169

146:                                              ; preds = %141
  store i32 0, i32* %6, align 4
  br label %147

147:                                              ; preds = %162, %146
  %148 = load i32, i32* %6, align 4
  %149 = load i32, i32* %3, align 4
  %150 = icmp sle i32 %148, %149
  br i1 %150, label %151, label %165

151:                                              ; preds = %147
  %152 = load i32, i32* %6, align 4
  %153 = sext i32 %152 to i64
  %154 = getelementptr inbounds [100 x [100 x i32]], [100 x [100 x i32]]* %2, i64 0, i64 %153
  %155 = load i32, i32* %3, align 4
  %156 = load i32, i32* %6, align 4
  %157 = sub nsw i32 %155, %156
  %158 = sext i32 %157 to i64
  %159 = getelementptr inbounds [100 x i32], [100 x i32]* %154, i64 0, i64 %158
  %160 = load i32, i32* %159, align 4
  %161 = call i32 (i8*, ...) @printf(i8* getelementptr inbounds ([4 x i8], [4 x i8]* @.str.2, i64 0, i64 0), i32 %160)
  br label %162

162:                                              ; preds = %151
  %163 = load i32, i32* %6, align 4
  %164 = add nsw i32 %163, 1
  store i32 %164, i32* %6, align 4
  br label %147

165:                                              ; preds = %147
  br label %166

166:                                              ; preds = %165
  %167 = load i32, i32* %3, align 4
  %168 = add nsw i32 %167, 1
  store i32 %168, i32* %3, align 4
  br label %141

169:                                              ; preds = %141
  %170 = load i32, i32* %4, align 4
  store i32 %170, i32* %3, align 4
  br label %171

171:                                              ; preds = %197, %169
  %172 = load i32, i32* %3, align 4
  %173 = load i32, i32* %5, align 4
  %174 = sub nsw i32 %173, 1
  %175 = icmp sle i32 %172, %174
  br i1 %175, label %176, label %200

176:                                              ; preds = %171
  store i32 0, i32* %6, align 4
  br label %177

177:                                              ; preds = %193, %176
  %178 = load i32, i32* %6, align 4
  %179 = load i32, i32* %4, align 4
  %180 = sub nsw i32 %179, 1
  %181 = icmp sle i32 %178, %180
  br i1 %181, label %182, label %196

182:                                              ; preds = %177
  %183 = load i32, i32* %6, align 4
  %184 = sext i32 %183 to i64
  %185 = getelementptr inbounds [100 x [100 x i32]], [100 x [100 x i32]]* %2, i64 0, i64 %184
  %186 = load i32, i32* %3, align 4
  %187 = load i32, i32* %6, align 4
  %188 = sub nsw i32 %186, %187
  %189 = sext i32 %188 to i64
  %190 = getelementptr inbounds [100 x i32], [100 x i32]* %185, i64 0, i64 %189
  %191 = load i32, i32* %190, align 4
  %192 = call i32 (i8*, ...) @printf(i8* getelementptr inbounds ([4 x i8], [4 x i8]* @.str.2, i64 0, i64 0), i32 %191)
  br label %193

193:                                              ; preds = %182
  %194 = load i32, i32* %6, align 4
  %195 = add nsw i32 %194, 1
  store i32 %195, i32* %6, align 4
  br label %177

196:                                              ; preds = %177
  br label %197

197:                                              ; preds = %196
  %198 = load i32, i32* %3, align 4
  %199 = add nsw i32 %198, 1
  store i32 %199, i32* %3, align 4
  br label %171

200:                                              ; preds = %171
  %201 = load i32, i32* %5, align 4
  store i32 %201, i32* %3, align 4
  br label %202

202:                                              ; preds = %234, %200
  %203 = load i32, i32* %3, align 4
  %204 = load i32, i32* %4, align 4
  %205 = load i32, i32* %5, align 4
  %206 = add nsw i32 %204, %205
  %207 = sub nsw i32 %206, 2
  %208 = icmp sle i32 %203, %207
  br i1 %208, label %209, label %237

209:                                              ; preds = %202
  %210 = load i32, i32* %3, align 4
  %211 = load i32, i32* %5, align 4
  %212 = sub nsw i32 %210, %211
  %213 = add nsw i32 %212, 1
  store i32 %213, i32* %6, align 4
  br label %214

214:                                              ; preds = %230, %209
  %215 = load i32, i32* %6, align 4
  %216 = load i32, i32* %4, align 4
  %217 = sub nsw i32 %216, 1
  %218 = icmp sle i32 %215, %217
  br i1 %218, label %219, label %233

219:                                              ; preds = %214
  %220 = load i32, i32* %6, align 4
  %221 = sext i32 %220 to i64
  %222 = getelementptr inbounds [100 x [100 x i32]], [100 x [100 x i32]]* %2, i64 0, i64 %221
  %223 = load i32, i32* %3, align 4
  %224 = load i32, i32* %6, align 4
  %225 = sub nsw i32 %223, %224
  %226 = sext i32 %225 to i64
  %227 = getelementptr inbounds [100 x i32], [100 x i32]* %222, i64 0, i64 %226
  %228 = load i32, i32* %227, align 4
  %229 = call i32 (i8*, ...) @printf(i8* getelementptr inbounds ([4 x i8], [4 x i8]* @.str.2, i64 0, i64 0), i32 %228)
  br label %230

230:                                              ; preds = %219
  %231 = load i32, i32* %6, align 4
  %232 = add nsw i32 %231, 1
  store i32 %232, i32* %6, align 4
  br label %214

233:                                              ; preds = %214
  br label %234

234:                                              ; preds = %233
  %235 = load i32, i32* %3, align 4
  %236 = add nsw i32 %235, 1
  store i32 %236, i32* %3, align 4
  br label %202

237:                                              ; preds = %202
  br label %238

238:                                              ; preds = %237, %139
  ret i32 0
}